Certificate:
    Data:
        Version: 1 (0x0)
        Serial Number: 1 (0x1)
        Signature Algorithm: md5WithRSAEncryption
        Issuer: C=AU, ST=Some-State, O=Internet Widgits Pty Ltd
        Validity
            Not Before: Dec 23 09:21:03 2015 GMT
            Not After : Dec 22 09:21:03 2016 GMT
        Subject: C=CN, ST=Beijing, L=Beijing-city, O=em, OU=em-unit, CN=simon/emailAddress=simon@163.com
        Subject Public Key Info:
            Public Key Algorithm: rsaEncryption
            RSA Public Key: (512 bit)
                Modulus (512 bit):
                    00:c2:9b:9a:f6:5a:5a:99:ef:c8:9b:fc:d9:c5:a0:
                    c0:2c:8c:ff:86:1a:42:97:cb:16:a9:97:f7:29:b7:
                    b2:79:94:35:1c:41:45:1c:00:dc:2c:6e:91:ac:b6:
                    f4:d5:c9:88:f3:b0:2f:4a:99:b1:8a:2e:1d:d7:fc:
                    13:54:80:e1:c1
                Exponent: 65537 (0x10001)
    Signature Algorithm: md5WithRSAEncryption
        67:37:cc:0b:e1:9d:30:e8:90:6f:71:10:b7:6b:06:b1:59:46:
        9d:a5:16:79:98:71:3c:21:62:ae:15:ec:46:ec:68:17:4c:39:
        52:95:99:65:7a:56:6f:f7:d1:20:27:98:ed:cd:55:1b:53:09:
        64:a2:2f:c7:09:34:54:b2:ad:d3
-----BEGIN CERTIFICATE-----
MIIBszCCAV0CAQEwDQYJKoZIhvcNAQEEBQAwRTELMAkGA1UEBhMCQVUxEzARBgNV
BAgTClNvbWUtU3RhdGUxITAfBgNVBAoTGEludGVybmV0IFdpZGdpdHMgUHR5IEx0
ZDAeFw0xNTEyMjMwOTIxMDNaFw0xNjEyMjIwOTIxMDNaMIGDMQswCQYDVQQGEwJD
TjEQMA4GA1UECBMHQmVpamluZzEVMBMGA1UEBxMMQmVpamluZy1jaXR5MQswCQYD
VQQKEwJlbTEQMA4GA1UECxMHZW0tdW5pdDEOMAwGA1UEAxMFc2ltb24xHDAaBgkq
hkiG9w0BCQEWDXNpbW9uQDE2My5jb20wXDANBgkqhkiG9w0BAQEFAANLADBIAkEA
wpua9lpame/Im/zZxaDALIz/hhpCl8sWqZf3KbeyeZQ1HEFFHADcLG6RrLb01cmI
87AvSpmxii4d1/wTVIDhwQIDAQABMA0GCSqGSIb3DQEBBAUAA0EAZzfMC+GdMOiQ
b3EQt2sGsVlGnaUWeZhxPCFirhXsRuxoF0w5UpWZZXpWb/fRICeY7c1VG1MJZKIv
xwk0VLKt0w==
-----END CERTIFICATE-----
