Certificate:
    Data:
        Version: 1 (0x0)
        Serial Number: 3 (0x3)
        Signature Algorithm: md5WithRSAEncryption
        Issuer: C=AU, ST=Some-State, O=Internet Widgits Pty Ltd
        Validity
            Not Before: Dec 23 09:36:39 2015 GMT
            Not After : Dec 22 09:36:39 2016 GMT
        Subject: C=AU, ST=Some-State, O=Internet Widgits Pty Ltd, CN=ning
        Subject Public Key Info:
            Public Key Algorithm: rsaEncryption
            RSA Public Key: (512 bit)
                Modulus (512 bit):
                    00:b6:01:c7:95:35:78:7d:3c:9a:0b:86:62:ef:07:
                    bd:26:58:57:06:77:f4:85:01:a8:85:c8:f4:5f:c6:
                    8a:66:1c:58:3f:69:63:50:4d:e1:1d:a8:ef:be:9a:
                    97:6f:c3:20:b4:bc:7d:5d:9a:17:12:35:70:10:b8:
                    3b:f5:72:94:07
                Exponent: 65537 (0x10001)
    Signature Algorithm: md5WithRSAEncryption
        40:fd:64:3c:da:9d:7b:76:16:81:c4:da:1e:7f:1b:2a:55:91:
        73:82:b3:78:03:4d:6f:25:28:4b:8c:2f:02:ec:c7:c7:9e:8d:
        aa:7a:70:56:a0:ed:d4:68:41:50:e7:0a:75:83:9e:2d:d2:12:
        10:35:d0:5d:f6:ab:15:b5:8b:37
-----BEGIN CERTIFICATE-----
MIIBgzCCAS0CAQMwDQYJKoZIhvcNAQEEBQAwRTELMAkGA1UEBhMCQVUxEzARBgNV
BAgTClNvbWUtU3RhdGUxITAfBgNVBAoTGEludGVybmV0IFdpZGdpdHMgUHR5IEx0
ZDAeFw0xNTEyMjMwOTM2MzlaFw0xNjEyMjIwOTM2MzlaMFQxCzAJBgNVBAYTAkFV
MRMwEQYDVQQIEwpTb21lLVN0YXRlMSEwHwYDVQQKExhJbnRlcm5ldCBXaWRnaXRz
IFB0eSBMdGQxDTALBgNVBAMTBG5pbmcwXDANBgkqhkiG9w0BAQEFAANLADBIAkEA
tgHHlTV4fTyaC4Zi7we9JlhXBnf0hQGohcj0X8aKZhxYP2ljUE3hHajvvpqXb8Mg
tLx9XZoXEjVwELg79XKUBwIDAQABMA0GCSqGSIb3DQEBBAUAA0EAQP1kPNqde3YW
gcTaHn8bKlWRc4KzeANNbyUoS4wvAuzHx56NqnpwVqDt1GhBUOcKdYOeLdISEDXQ
XfarFbWLNw==
-----END CERTIFICATE-----
