Certificate:
    Data:
        Version: 1 (0x0)
        Serial Number: 2 (0x2)
        Signature Algorithm: md5WithRSAEncryption
        Issuer: C=AU, ST=Some-State, O=Internet Widgits Pty Ltd
        Validity
            Not Before: Dec 23 09:22:35 2015 GMT
            Not After : Dec 22 09:22:35 2016 GMT
        Subject: C=AU, ST=Some-State, O=Internet Widgits Pty Ltd, CN=fu
        Subject Public Key Info:
            Public Key Algorithm: rsaEncryption
            RSA Public Key: (512 bit)
                Modulus (512 bit):
                    00:bd:4c:06:f3:29:5d:28:23:76:27:de:ce:58:fa:
                    41:16:8f:b1:32:8c:cf:7c:92:ae:96:2e:71:e5:7d:
                    ab:04:ce:3b:00:85:90:5f:91:10:f8:d9:c4:43:75:
                    d9:c4:df:cc:a6:9f:b5:ea:36:bb:06:ae:2a:28:21:
                    aa:bc:e6:66:37
                Exponent: 65537 (0x10001)
    Signature Algorithm: md5WithRSAEncryption
        0b:93:03:1b:fb:7a:dc:3c:82:9c:ba:9e:26:a1:0a:af:f2:1b:
        c1:9a:ee:67:b9:91:1e:64:aa:24:41:64:33:87:82:fd:e0:25:
        37:ca:c1:15:3e:7d:ee:ba:b6:60:5d:27:2f:78:74:26:f2:bb:
        a5:6f:31:d8:a1:f2:74:bb:38:e8
-----BEGIN CERTIFICATE-----
MIIBgTCCASsCAQIwDQYJKoZIhvcNAQEEBQAwRTELMAkGA1UEBhMCQVUxEzARBgNV
BAgTClNvbWUtU3RhdGUxITAfBgNVBAoTGEludGVybmV0IFdpZGdpdHMgUHR5IEx0
ZDAeFw0xNTEyMjMwOTIyMzVaFw0xNjEyMjIwOTIyMzVaMFIxCzAJBgNVBAYTAkFV
MRMwEQYDVQQIEwpTb21lLVN0YXRlMSEwHwYDVQQKExhJbnRlcm5ldCBXaWRnaXRz
IFB0eSBMdGQxCzAJBgNVBAMTAmZ1MFwwDQYJKoZIhvcNAQEBBQADSwAwSAJBAL1M
BvMpXSgjdifezlj6QRaPsTKMz3ySrpYuceV9qwTOOwCFkF+REPjZxEN12cTfzKaf
teo2uwauKighqrzmZjcCAwEAATANBgkqhkiG9w0BAQQFAANBAAuTAxv7etw8gpy6
niahCq/yG8Ga7me5kR5kqiRBZDOHgv3gJTfKwRU+fe66tmBdJy94dCbyu6VvMdih
8nS7OOg=
-----END CERTIFICATE-----
